; Function Attrs: nofree nounwind uwtable
define void @Extra_BitMatrixPrint(ptr noundef captures(none) %0) local_unnamed_addr #6 {
  %putchar = tail call i32 @putchar(i32 10)
  %2 = getelementptr inbounds nuw i8, ptr %0, i64 8
  %3 = load i32, ptr %2, align 8
  %4 = icmp sgt i32 %3, 0
  br i1 %4, label %.preheader.lr.ph, label %._crit_edge23

.preheader.lr.ph:                                 ; preds = %1
  %5 = getelementptr inbounds nuw i8, ptr %0, i64 24
  %6 = getelementptr inbounds nuw i8, ptr %0, i64 16
  %7 = getelementptr inbounds nuw i8, ptr %0, i64 20
  br label %.preheader

.preheader:                                       ; preds = %.preheader.lr.ph, %._crit_edge
  %indvars.iv = phi i32 [ 1, %.preheader.lr.ph ], [ %indvars.iv.next, %._crit_edge ]
  %.022 = phi i32 [ 0, %.preheader.lr.ph ], [ %11, %._crit_edge ]
  br label %8

8:                                                ; preds = %.preheader, %8
  %.01320 = phi i32 [ 0, %.preheader ], [ %9, %8 ]
  %putchar19 = tail call i32 @putchar(i32 32)
  %9 = add nuw nsw i32 %.01320, 1
  %exitcond.not = icmp eq i32 %9, %indvars.iv
  br i1 %exitcond.not, label %10, label %8, !llvm.loop !6

10:                                               ; preds = %8
  %11 = add nuw nsw i32 %.022, 1
  %12 = icmp slt i32 %11, %3
  br i1 %12, label %.lr.ph, label %._crit_edge

.lr.ph:                                           ; preds = %10, %.lr.ph
  %.121 = phi i32 [ %28, %.lr.ph ], [ %11, %10 ]
  %13 = load i32, ptr %5, align 8
  %14 = add nsw i32 %13, 1
  store i32 %14, ptr %5, align 8
  %15 = load ptr, ptr %0, align 8
  %16 = load i32, ptr %6, align 8
  %17 = load i32, ptr %7, align 4
  %..i = tail call i32 @llvm.smin.i32(i32 %.022, i32 %.121)
  %.26.i = tail call i32 @llvm.smax.i32(i32 %.022, i32 %.121)
  %18 = zext nneg i32 %..i to i64
  %19 = getelementptr inbounds nuw ptr, ptr %15, i64 %18
  %20 = load ptr, ptr %19, align 8
  %21 = lshr i32 %.26.i, %16
  %22 = zext nneg i32 %21 to i64
  %23 = getelementptr inbounds nuw i32, ptr %20, i64 %22
  %24 = load i32, ptr %23, align 4
  %25 = and i32 %17, %.26.i
  %26 = shl nuw i32 1, %25
  %27 = and i32 %24, %26
  %.not16 = icmp eq i32 %27, 0
  %. = select i1 %.not16, i32 46, i32 49
  %putchar18 = tail call i32 @putchar(i32 %.)
  %28 = add nuw i32 %.121, 1
  %exitcond24.not = icmp eq i32 %28, %3
  br i1 %exitcond24.not, label %._crit_edge, label %.lr.ph, !llvm.loop !7

._crit_edge:                                      ; preds = %.lr.ph, %10
  %putchar15 = tail call i32 @putchar(i32 10)
  %indvars.iv.next = add nuw i32 %indvars.iv, 1
  %exitcond25.not = icmp eq i32 %11, %3
  br i1 %exitcond25.not, label %._crit_edge23, label %.preheader, !llvm.loop !8

._crit_edge23:                                    ; preds = %._crit_edge, %1
  ret void
}